target datalayout = "e-m:e-p270:32:32-p271:32:32-p272:64:64-i64:64-i128:128-f80:128-n8:16:32:64-S128"
target triple = "x86_64-pc-linux-gnu"

%"class.sls::bv_lookahead" = type { %class.bv_util, ptr, ptr, ptr, %"struct.sls::bv_lookahead::config", %"struct.sls::bv_lookahead::stats", %"class.sls::bvect", %"class.sls::bvect", %class.ptr_vector, %class.svector.1, %class.vector.3, %class.obj_mark, double, double, %"class.sls::bvect", ptr, ptr, %class.ptr_vector, %class.vector.4, %class.obj_mark, i32, %class.tracked_uint_set, i32, i32 }
%class.bv_util = type { %class.bv_recognizers, ptr, ptr }
%class.bv_recognizers = type { i32 }
%"struct.sls::bv_lookahead::config" = type <{ i8, [7 x i8], double, i32, i32, i8, i8, i8, i8, i32, i32, i32, i32, i8, [3 x i8], i32, i32, i32, i8, [3 x i8], double, double, i8, [7 x i8], double, i8, i8, i8, [5 x i8] }>
%"struct.sls::bv_lookahead::stats" = type { i32, i32, i32, i32, i32, i32 }
%class.svector.1 = type { %class.vector.2 }
%class.vector.2 = type { ptr }
%class.vector.3 = type { ptr }
%"class.sls::bvect" = type <{ %class.svector, i32, i32, i32, [4 x i8] }>
%class.svector = type { %class.vector }
%class.vector = type { ptr }
%class.ptr_vector = type { %class.vector.0 }
%class.vector.0 = type { ptr }
%class.vector.4 = type { ptr }
%class.obj_mark = type { [8 x i8], %class.bit_vector }
%class.bit_vector = type { i32, i32, ptr }
%class.tracked_uint_set = type { %class.svector.5, %class.svector }
%class.svector.5 = type { %class.vector.6 }
%class.vector.6 = type { ptr }
%class.random_gen = type { i32 }
%class.params_ref = type { ptr }
%"class.sls::context" = type <{ ptr, ptr, %class.scoped_ptr_vector.42, %class.indexed_uint_set, %class.indexed_uint_set, %class.ref_vector, %class.svector, %class.params_ref, %class.vector.45, %class.svector.46, %class.svector.46, %class.indexed_uint_set, %class.random_gen, i8, i8, i8, i8, %class.ref_vector, %class.ref_vector, %class.ptr_vector, %"struct.sls::context::greater_depth", %"struct.sls::context::less_depth", %class.heap, %class.heap.48, %class.uint_set, %class.ref_vector, %"struct.sls::context::stats", [4 x i8], %class.ref_vector, i8, [7 x i8] }>
%class.scoped_ptr_vector.42 = type { %class.ptr_vector.43 }
%class.ptr_vector.43 = type { %class.vector.44 }
%class.vector.44 = type { ptr }
%class.vector.45 = type { ptr }
%class.svector.46 = type { %class.vector.47 }
%class.vector.47 = type { ptr }
%class.indexed_uint_set = type { i32, %class.svector, %class.svector }
%"struct.sls::context::greater_depth" = type { ptr }
%"struct.sls::context::less_depth" = type { ptr }
%class.heap = type { %"struct.sls::context::greater_depth", %class.svector.20, %class.svector.20 }
%class.svector.20 = type { %class.vector.21 }
%class.vector.21 = type { ptr }
%class.heap.48 = type { %"struct.sls::context::less_depth", %class.svector.20, %class.svector.20 }
%class.uint_set = type { %class.svector }
%"struct.sls::context::stats" = type { i32, i32, i32 }
%class.ref_vector = type { %class.ref_vector_core }
%class.ref_vector_core = type { %class.ref_manager_wrapper, %class.ptr_vector }
%class.ref_manager_wrapper = type { ptr }
%"class.sat::literal" = type { i32 }
%class.ast = type { i32, i32, i32, i32 }

; Function Attrs: mustprogress nounwind uwtable
define linkonce_odr hidden noundef i32 @_ZNK6vectorIP4exprLb0EjE4sizeEv(ptr noundef nonnull align 8 dereferenceable(8) %0) #6 comdat align 2 {
  %2 = alloca i32, align 4
  %3 = alloca ptr, align 8
  store ptr %0, ptr %3, align 8, !tbaa !128
  %4 = load ptr, ptr %3, align 8
  %5 = getelementptr inbounds nuw %class.vector.0, ptr %4, i32 0, i32 0
  %6 = load ptr, ptr %5, align 8, !tbaa !213
  %7 = icmp eq ptr %6, null
  br i1 %7, label %8, label %9

8:                                                ; preds = %1
  store i32 0, ptr %2, align 4
  br label %14

9:                                                ; preds = %1
  %10 = getelementptr inbounds nuw %class.vector.0, ptr %4, i32 0, i32 0
  %11 = load ptr, ptr %10, align 8, !tbaa !213
  %12 = getelementptr inbounds i32, ptr %11, i64 -1
  %13 = load i32, ptr %12, align 4, !tbaa !185
  store i32 %13, ptr %2, align 4
  br label %14

14:                                               ; preds = %9, %8
  %15 = load i32, ptr %2, align 4
  ret i32 %15
}

; Function Attrs: mustprogress uwtable
define linkonce_odr hidden noundef nonnull align 8 dereferenceable(8) ptr @_ZNK6vectorIP4exprLb0EjE3getEjRKS1_(ptr noundef nonnull align 8 dereferenceable(8) %0, i32 noundef %1, ptr noundef nonnull align 8 dereferenceable(8) %2) #4 comdat align 2 {
  %4 = alloca ptr, align 8
  %5 = alloca ptr, align 8
  %6 = alloca i32, align 4
  %7 = alloca ptr, align 8
  store ptr %0, ptr %5, align 8, !tbaa !128
  store i32 %1, ptr %6, align 4, !tbaa !185
  store ptr %2, ptr %7, align 8, !tbaa !172
  %8 = load ptr, ptr %5, align 8
  %9 = load i32, ptr %6, align 4, !tbaa !185
  %10 = call noundef i32 @_ZNK6vectorIP4exprLb0EjE4sizeEv(ptr noundef nonnull align 8 dereferenceable(8) %8)
  %11 = icmp uge i32 %9, %10
  br i1 %11, label %12, label %14

12:                                               ; preds = %3
  %13 = load ptr, ptr %7, align 8, !tbaa !172
  store ptr %13, ptr %4, align 8
  br label %20

14:                                               ; preds = %3
  %15 = getelementptr inbounds nuw %class.vector.0, ptr %8, i32 0, i32 0
  %16 = load ptr, ptr %15, align 8, !tbaa !213
  %17 = load i32, ptr %6, align 4, !tbaa !185
  %18 = zext i32 %17 to i64
  %19 = getelementptr inbounds nuw ptr, ptr %16, i64 %18
  store ptr %19, ptr %4, align 8
  br label %20

20:                                               ; preds = %14, %12
  %21 = load ptr, ptr %4, align 8
  ret ptr %21
}

; Function Attrs: mustprogress nounwind uwtable
define linkonce_odr hidden noundef i32 @_ZNK3ast8get_kindEv(ptr noundef nonnull align 4 dereferenceable(16) %0) #6 comdat align 2 {
  %2 = alloca ptr, align 8
  store ptr %0, ptr %2, align 8, !tbaa !222
  %3 = load ptr, ptr %2, align 8
  %4 = getelementptr inbounds nuw %class.ast, ptr %3, i32 0, i32 1
  %5 = load i32, ptr %4, align 4
  %6 = and i32 %5, 65535
  ret i32 %6
}

; Function Attrs: mustprogress uwtable
define linkonce_odr hidden noundef ptr @_ZNK15ref_vector_coreI4expr19ref_manager_wrapperIS0_11ast_managerEE3getEjPS0_(ptr noundef nonnull align 8 dereferenceable(16) %0, i32 noundef %1, ptr noundef %2) #4 comdat align 2 {
  %4 = alloca ptr, align 8
  %5 = alloca i32, align 4
  %6 = alloca ptr, align 8
  store ptr %0, ptr %4, align 8, !tbaa !368
  store i32 %1, ptr %5, align 4, !tbaa !185
  store ptr %2, ptr %6, align 8, !tbaa !173
  %7 = load ptr, ptr %4, align 8
  %8 = getelementptr inbounds nuw %class.ref_vector_core, ptr %7, i32 0, i32 1
  %9 = load i32, ptr %5, align 4, !tbaa !185
  %10 = call noundef nonnull align 8 dereferenceable(8) ptr @_ZNK6vectorIP4exprLb0EjE3getEjRKS1_(ptr noundef nonnull align 8 dereferenceable(8) %8, i32 noundef %9, ptr noundef nonnull align 8 dereferenceable(8) %6)
  %11 = load ptr, ptr %10, align 8, !tbaa !173
  ret ptr %11
}

; Function Attrs: inlinehint mustprogress nounwind uwtable
define linkonce_odr hidden noundef ptr @_Z6to_appP3ast(ptr noundef %0) #5 comdat {
  %2 = alloca ptr, align 8
  store ptr %0, ptr %2, align 8, !tbaa !222
  %3 = load ptr, ptr %2, align 8, !tbaa !222
  ret ptr %3
}

; Function Attrs: inlinehint mustprogress uwtable
define linkonce_odr hidden noundef zeroext i1 @_Z6is_appPK3ast(ptr noundef %0) #8 comdat {
  %2 = alloca ptr, align 8
  store ptr %0, ptr %2, align 8, !tbaa !222
  %3 = load ptr, ptr %2, align 8, !tbaa !222
  %4 = call noundef i32 @_ZNK3ast8get_kindEv(ptr noundef nonnull align 4 dereferenceable(16) %3)
  %5 = icmp eq i32 %4, 0
  ret i1 %5
}

; Function Attrs: mustprogress uwtable
define linkonce_odr hidden noundef ptr @_ZN3sls7context4atomEj(ptr noundef nonnull align 8 dereferenceable(321) %0, i32 noundef %1) #4 comdat align 2 {
  %3 = alloca ptr, align 8
  %4 = alloca i32, align 4
  store ptr %0, ptr %3, align 8, !tbaa !65
  store i32 %1, ptr %4, align 4, !tbaa !185
  %5 = load ptr, ptr %3, align 8
  %6 = getelementptr inbounds nuw %"class.sls::context", ptr %5, i32 0, i32 5
  %7 = load i32, ptr %4, align 4, !tbaa !185
  %8 = call noundef ptr @_ZNK15ref_vector_coreI4expr19ref_manager_wrapperIS0_11ast_managerEE3getEjPS0_(ptr noundef nonnull align 8 dereferenceable(16) %6, i32 noundef %7, ptr noundef null)
  ret ptr %8
}

; Function Attrs: mustprogress nounwind uwtable
define linkonce_odr hidden noundef i32 @_ZNK3sat7literal3varEv(ptr noundef nonnull align 4 dereferenceable(4) %0) #6 comdat align 2 {
  %2 = alloca ptr, align 8
  store ptr %0, ptr %2, align 8, !tbaa !252
  %3 = load ptr, ptr %2, align 8
  %4 = getelementptr inbounds nuw %"class.sat::literal", ptr %3, i32 0, i32 0
  %5 = load i32, ptr %4, align 4, !tbaa !253
  %6 = lshr i32 %5, 1
  ret i32 %6
}

; Function Attrs: mustprogress uwtable
define linkonce_odr hidden noundef zeroext i1 @_ZN3sls7context7is_trueEN3sat7literalE(ptr noundef nonnull align 8 dereferenceable(321) %0, i32 %1) #4 comdat align 2 {
  %3 = alloca %"class.sat::literal", align 4
  %4 = alloca ptr, align 8
  %5 = alloca %"class.sat::literal", align 4
  %6 = getelementptr inbounds nuw %"class.sat::literal", ptr %3, i32 0, i32 0
  store i32 %1, ptr %6, align 4
  store ptr %0, ptr %4, align 8, !tbaa !65
  %7 = load ptr, ptr %4, align 8
  %8 = getelementptr inbounds nuw %"class.sls::context", ptr %7, i32 0, i32 1
  %9 = load ptr, ptr %8, align 8, !tbaa !186
  call void @llvm.memcpy.p0.p0.i64(ptr align 4 %5, ptr align 4 %3, i64 4, i1 false), !tbaa.struct !251
  %10 = getelementptr inbounds nuw %"class.sat::literal", ptr %5, i32 0, i32 0
  %11 = load i32, ptr %10, align 4
  %12 = load ptr, ptr %9, align 8, !tbaa !183
  %13 = getelementptr inbounds ptr, ptr %12, i64 10
  %14 = load ptr, ptr %13, align 8
  %15 = call noundef zeroext i1 %14(ptr noundef nonnull align 8 dereferenceable(8) %9, i32 %11)
  ret i1 %15
}

; Function Attrs: mustprogress uwtable
define hidden noundef zeroext i1 @_ZN3sls12bv_lookahead13is_bv_literalEN3sat7literalE(ptr noundef nonnull align 8 dereferenceable(400) %0, i32 %1) #4 align 2 {
  %3 = alloca i1, align 1
  %4 = alloca %"class.sat::literal", align 4
  %5 = alloca ptr, align 8
  %6 = alloca %"class.sat::literal", align 4
  %7 = alloca ptr, align 8
  %8 = alloca i32, align 4
  %9 = alloca ptr, align 8
  %10 = getelementptr inbounds nuw %"class.sat::literal", ptr %4, i32 0, i32 0
  store i32 %1, ptr %10, align 4
  store ptr %0, ptr %5, align 8, !tbaa !3
  %11 = load ptr, ptr %5, align 8
  %12 = getelementptr inbounds nuw %"class.sls::bv_lookahead", ptr %11, i32 0, i32 2
  %13 = load ptr, ptr %12, align 8, !tbaa !136
  call void @llvm.memcpy.p0.p0.i64(ptr align 4 %6, ptr align 4 %4, i64 4, i1 false), !tbaa.struct !251
  %14 = getelementptr inbounds nuw %"class.sat::literal", ptr %6, i32 0, i32 0
  %15 = load i32, ptr %14, align 4
  %16 = call noundef zeroext i1 @_ZN3sls7context7is_trueEN3sat7literalE(ptr noundef nonnull align 8 dereferenceable(321) %13, i32 %15)
  br i1 %16, label %18, label %17

17:                                               ; preds = %2
  store i1 false, ptr %3, align 1
  br label %37

18:                                               ; preds = %2
  call void @llvm.lifetime.start.p0(i64 8, ptr %7) #3
  %19 = getelementptr inbounds nuw %"class.sls::bv_lookahead", ptr %11, i32 0, i32 2
  %20 = load ptr, ptr %19, align 8, !tbaa !136
  %21 = call noundef i32 @_ZNK3sat7literal3varEv(ptr noundef nonnull align 4 dereferenceable(4) %4)
  %22 = call noundef ptr @_ZN3sls7context4atomEj(ptr noundef nonnull align 8 dereferenceable(321) %20, i32 noundef %21)
  store ptr %22, ptr %7, align 8, !tbaa !173
  %23 = load ptr, ptr %7, align 8, !tbaa !173
  %24 = icmp ne ptr %23, null
  br i1 %24, label %25, label %28

25:                                               ; preds = %18
  %26 = load ptr, ptr %7, align 8, !tbaa !173
  %27 = call noundef zeroext i1 @_Z6is_appPK3ast(ptr noundef %26)
  br i1 %27, label %29, label %28

28:                                               ; preds = %25, %18
  store i1 false, ptr %3, align 1
  store i32 1, ptr %8, align 4
  br label %36

29:                                               ; preds = %25
  call void @llvm.lifetime.start.p0(i64 8, ptr %9) #3
  %30 = load ptr, ptr %7, align 8, !tbaa !173
  %31 = call noundef ptr @_Z6to_appP3ast(ptr noundef %30)
  store ptr %31, ptr %9, align 8, !tbaa !231
  %32 = getelementptr inbounds nuw %"class.sls::bv_lookahead", ptr %11, i32 0, i32 1
  %33 = load ptr, ptr %32, align 8, !tbaa !140
  %34 = load ptr, ptr %9, align 8, !tbaa !231
  %35 = call noundef zeroext i1 @_ZNK3sls7bv_eval9can_eval1EP4expr(ptr noundef nonnull align 8 dereferenceable(865) %33, ptr noundef %34)
  store i1 %35, ptr %3, align 1
  store i32 1, ptr %8, align 4
  call void @llvm.lifetime.end.p0(i64 8, ptr %9) #3
  br label %36

36:                                               ; preds = %29, %28
  call void @llvm.lifetime.end.p0(i64 8, ptr %7) #3
  br label %37

37:                                               ; preds = %36, %17
  %38 = load i1, ptr %3, align 1
  ret i1 %38
}