; Function Attrs: mustprogress uwtable
define hidden noundef zeroext i1 @_ZN3sls12bv_lookahead13is_bv_literalEN3sat7literalE(ptr noundef nonnull readonly align 8 captures(none) dereferenceable(400) %0, i32 %1) local_unnamed_addr #3 align 2 {
  %3 = getelementptr inbounds nuw i8, ptr %0, i64 32
  %4 = load ptr, ptr %3, align 8, !tbaa !92
  %5 = getelementptr inbounds nuw i8, ptr %4, i64 8
  %6 = load ptr, ptr %5, align 8, !tbaa !101
  %7 = load ptr, ptr %6, align 8, !tbaa !127
  %8 = getelementptr inbounds nuw i8, ptr %7, i64 80
  %9 = load ptr, ptr %8, align 8
  %10 = tail call noundef zeroext i1 %9(ptr noundef nonnull align 8 dereferenceable(8) %6, i32 %1)
  br i1 %10, label %11, label %_ZN3sls7context4atomEj.exit.thread

11:                                               ; preds = %2
  %12 = load ptr, ptr %3, align 8, !tbaa !92
  %13 = lshr i32 %1, 1
  %14 = getelementptr inbounds nuw i8, ptr %12, i64 80
  %15 = load ptr, ptr %14, align 8, !tbaa !132
  %16 = icmp eq ptr %15, null
  br i1 %16, label %_ZN3sls7context4atomEj.exit.thread, label %_ZNK6vectorIP4exprLb0EjE3getEjRKS1_.exit.i.i

_ZNK6vectorIP4exprLb0EjE3getEjRKS1_.exit.i.i:     ; preds = %11
  %17 = getelementptr inbounds i8, ptr %15, i64 -4
  %18 = load i32, ptr %17, align 4, !tbaa !133
  %.not.i.i.i = icmp ult i32 %13, %18
  br i1 %.not.i.i.i, label %_ZN3sls7context4atomEj.exit, label %_ZN3sls7context4atomEj.exit.thread

_ZN3sls7context4atomEj.exit:                      ; preds = %_ZNK6vectorIP4exprLb0EjE3getEjRKS1_.exit.i.i
  %19 = zext nneg i32 %13 to i64
  %20 = getelementptr inbounds nuw ptr, ptr %15, i64 %19
  %.then.val.i.i = load ptr, ptr %20, align 8, !tbaa !134
  %.not = icmp eq ptr %.then.val.i.i, null
  br i1 %.not, label %_ZN3sls7context4atomEj.exit.thread, label %21

21:                                               ; preds = %_ZN3sls7context4atomEj.exit
  %22 = getelementptr inbounds nuw i8, ptr %.then.val.i.i, i64 4
  %23 = load i32, ptr %22, align 4
  %24 = and i32 %23, 65535
  %25 = icmp eq i32 %24, 0
  br i1 %25, label %26, label %_ZN3sls7context4atomEj.exit.thread

26:                                               ; preds = %21
  %27 = getelementptr inbounds nuw i8, ptr %0, i64 24
  %28 = load ptr, ptr %27, align 8, !tbaa !96
  %29 = tail call noundef zeroext i1 @_ZNK3sls7bv_eval9can_eval1EP4expr(ptr noundef nonnull align 8 dereferenceable(865) %28, ptr noundef nonnull %.then.val.i.i)
  br label %_ZN3sls7context4atomEj.exit.thread

_ZN3sls7context4atomEj.exit.thread:               ; preds = %11, %_ZNK6vectorIP4exprLb0EjE3getEjRKS1_.exit.i.i, %26, %21, %_ZN3sls7context4atomEj.exit, %2
  %.0 = phi i1 [ false, %2 ], [ %29, %26 ], [ false, %21 ], [ false, %_ZN3sls7context4atomEj.exit ], [ false, %_ZNK6vectorIP4exprLb0EjE3getEjRKS1_.exit.i.i ], [ false, %11 ]
  ret i1 %.0
}